target datalayout = "e-m:e-p270:32:32-p271:32:32-p272:64:64-i64:64-i128:128-f80:128-n8:16:32:64-S128"
target triple = "x86_64-pc-linux-gnu"

; Function Attrs: nounwind uwtable
define dso_local i32 @exec_cmd(ptr noundef %0) #0 {
  %2 = alloca ptr, align 8
  %3 = alloca i32, align 4
  %4 = alloca i32, align 4
  %5 = alloca i32, align 4
  store ptr %0, ptr %2, align 8
  %6 = call i32 @fork() #9
  store i32 %6, ptr %3, align 4
  %7 = load i32, ptr %3, align 4
  %8 = icmp eq i32 %7, 0
  br i1 %8, label %9, label %15

9:                                                ; preds = %1
  %10 = load ptr, ptr %2, align 8
  %11 = getelementptr ptr, ptr %10, i64 0
  %12 = load ptr, ptr %11, align 8
  %13 = load ptr, ptr %2, align 8
  %14 = call i32 @execvp(ptr noundef %12, ptr noundef %13) #9
  call void @exit(i32 noundef 1) #11
  unreachable

15:                                               ; preds = %1
  br label %16

16:                                               ; preds = %27, %15
  %17 = load i32, ptr %3, align 4
  %18 = call i32 @waitpid(i32 noundef %17, ptr noundef %4, i32 noundef 0)
  store i32 %18, ptr %5, align 4
  %19 = load i32, ptr %5, align 4
  %20 = load i32, ptr %3, align 4
  %21 = icmp eq i32 %19, %20
  br i1 %21, label %22, label %27

22:                                               ; preds = %16
  %23 = load i32, ptr %4, align 4
  %24 = and i32 %23, 127
  %25 = icmp eq i32 %24, 0
  br i1 %25, label %26, label %27

26:                                               ; preds = %22
  br label %28

27:                                               ; preds = %22, %16
  br label %16

28:                                               ; preds = %26
  %29 = load i32, ptr %4, align 4
  %30 = and i32 %29, 65280
  %31 = ashr i32 %30, 8
  ret i32 %31
}