; Function Attrs: nounwind uwtable
define dso_local i32 @exec_cmd(ptr noundef %0) local_unnamed_addr #3 {
  %2 = alloca i32, align 4
  %3 = tail call i32 @fork() #16
  %4 = icmp eq i32 %3, 0
  br i1 %4, label %5, label %.preheader

5:                                                ; preds = %1
  %6 = load ptr, ptr %0, align 8
  %7 = tail call i32 @execvp(ptr noundef %6, ptr noundef nonnull %0) #16
  tail call void @exit(i32 noundef 1) #19
  unreachable

.preheader:                                       ; preds = %1, %.preheader.backedge
  %8 = call i32 @waitpid(i32 noundef %3, ptr noundef nonnull %2, i32 noundef 0) #16
  %9 = icmp eq i32 %8, %3
  br i1 %9, label %10, label %.preheader.backedge

10:                                               ; preds = %.preheader
  %11 = load i32, ptr %2, align 4
  %12 = and i32 %11, 127
  %13 = icmp eq i32 %12, 0
  br i1 %13, label %14, label %.preheader.backedge

.preheader.backedge:                              ; preds = %10, %.preheader
  br label %.preheader

14:                                               ; preds = %10
  %15 = lshr i32 %11, 8
  %16 = and i32 %15, 255
  ret i32 %16
}